; Function Attrs: mustprogress uwtable
define noundef ptr @_ZNK32pxrInternal_v0_24__pxrReserved__12Usd_PrimData9GetParentEv(ptr noundef nonnull align 8 dereferenceable(64) %0) local_unnamed_addr #0 align 2 personality ptr @__gxx_personality_v0 {
  %2 = alloca %"class.pxrInternal_v0_24__pxrReserved__::SdfPath", align 8
  %3 = getelementptr inbounds nuw i8, ptr %0, i64 40
  %4 = load ptr, ptr %3, align 8
  %5 = ptrtoint ptr %4 to i64
  %6 = and i64 %5, 7
  %.not.i = icmp eq i64 %6, 0
  %7 = and i64 %5, -8
  %8 = inttoptr i64 %7 to ptr
  %.not6 = icmp eq i64 %7, 0
  %.not = or i1 %.not.i, %.not6
  br i1 %.not, label %9, label %_ZN32pxrInternal_v0_24__pxrReserved__7SdfPathD2Ev.exit

9:                                                ; preds = %1
  %10 = getelementptr inbounds nuw i8, ptr %0, i64 16
  call void @_ZNK32pxrInternal_v0_24__pxrReserved__7SdfPath13GetParentPathEv(ptr dead_on_unwind nonnull writable sret(%"class.pxrInternal_v0_24__pxrReserved__::SdfPath") align 4 %2, ptr noundef nonnull align 4 dereferenceable(8) %10)
  %11 = invoke noundef nonnull align 4 dereferenceable(8) ptr @_ZN32pxrInternal_v0_24__pxrReserved__7SdfPath9EmptyPathEv()
          to label %12 unwind label %38

12:                                               ; preds = %9
  %.0.copyload.i.i = load i64, ptr %2, align 8
  %.0.copyload.i2.i = load i64, ptr %11, align 4
  %13 = icmp eq i64 %.0.copyload.i.i, %.0.copyload.i2.i
  %14 = trunc i64 %.0.copyload.i.i to i32
  br i1 %13, label %18, label %15

15:                                               ; preds = %12
  %16 = load ptr, ptr %0, align 8
  %17 = invoke noundef ptr @_ZN32pxrInternal_v0_24__pxrReserved__8UsdStage18_GetPrimDataAtPathERKNS_7SdfPathE(ptr noundef nonnull align 8 dereferenceable(1282) %16, ptr noundef nonnull align 4 dereferenceable(8) %2)
          to label %._crit_edge unwind label %38

._crit_edge:                                      ; preds = %15
  %.pre = load i32, ptr %2, align 8
  br label %18

18:                                               ; preds = %._crit_edge, %12
  %19 = phi i32 [ %14, %12 ], [ %.pre, %._crit_edge ]
  %20 = phi ptr [ null, %12 ], [ %17, %._crit_edge ]
  %.not.i.i = icmp eq i32 %19, 0
  br i1 %.not.i.i, label %_ZN32pxrInternal_v0_24__pxrReserved__7SdfPathD2Ev.exit, label %21

21:                                               ; preds = %18
  %22 = and i32 %19, 255
  %23 = lshr i32 %19, 8
  %24 = zext nneg i32 %22 to i64
  %25 = getelementptr inbounds nuw [257 x ptr], ptr @_ZN32pxrInternal_v0_24__pxrReserved__8Sdf_PoolINS_15Sdf_PathPrimTagELj24ELj8ELj16384EE13_regionStartsE, i64 0, i64 %24
  %26 = load ptr, ptr %25, align 8
  %27 = mul nuw nsw i32 %23, 24
  %28 = zext nneg i32 %27 to i64
  %29 = getelementptr inbounds nuw i8, ptr %26, i64 %28
  %30 = getelementptr inbounds nuw i8, ptr %29, i64 8
  %31 = atomicrmw sub ptr %30, i32 1 seq_cst, align 4
  %32 = and i32 %31, 2147483647
  %33 = icmp eq i32 %32, 1
  br i1 %33, label %34, label %_ZN32pxrInternal_v0_24__pxrReserved__7SdfPathD2Ev.exit

34:                                               ; preds = %21
  invoke void @_ZNK32pxrInternal_v0_24__pxrReserved__12Sdf_PathNode8_DestroyEv(ptr noundef nonnull align 8 dereferenceable(16) %29)
          to label %_ZN32pxrInternal_v0_24__pxrReserved__7SdfPathD2Ev.exit unwind label %35

35:                                               ; preds = %34
  %36 = landingpad { ptr, i32 }
          catch ptr null
  %37 = extractvalue { ptr, i32 } %36, 0
  call void @__clang_call_terminate(ptr %37) #16
  unreachable

38:                                               ; preds = %15, %9
  %39 = landingpad { ptr, i32 }
          cleanup
  call void @_ZN32pxrInternal_v0_24__pxrReserved__7SdfPathD2Ev(ptr noundef nonnull align 4 dereferenceable(8) %2) #14
  resume { ptr, i32 } %39

_ZN32pxrInternal_v0_24__pxrReserved__7SdfPathD2Ev.exit: ; preds = %34, %21, %18, %1
  %.0 = phi ptr [ %8, %1 ], [ %20, %18 ], [ %20, %21 ], [ %20, %34 ]
  ret ptr %.0
}